target datalayout = "e-m:e-p270:32:32-p271:32:32-p272:64:64-i64:64-i128:128-f80:128-n8:16:32:64-S128"
target triple = "x86_64-pc-linux-gnu"

%struct.t_5VW_Capture_Header = type { %struct.t_5VW_Info_Header, %struct.t_5VW_Attributes_Header, i32, %struct.t_5VW_Attributes_Header, i32 }
%struct.t_5VW_Info_Header = type { i32, i32, i32, i32, i32, [3 x i32] }
%struct.t_5VW_Attributes_Header = type { i32, i16, i16 }
%struct.wtap = type { ptr, ptr, i8, i32, i32, ptr, ptr, ptr, i32, ptr, ptr, ptr, ptr, ptr, ptr, ptr, ptr, ptr, ptr, i32, i32, ptr, ptr, ptr, ptr }

@.str = private unnamed_addr constant [38 x i8] c"5views: header version %u unsupported\00", align 1
@.str.1 = private unnamed_addr constant [52 x i8] c"5views: file is not a capture file (filetype is %u)\00", align 1
@.str.2 = private unnamed_addr constant [47 x i8] c"5views: network type %u unknown or unsupported\00", align 1
@_5views_file_type_subtype = internal global i32 -1, align 4

; Function Attrs: inlinehint nounwind null_pointer_is_valid sspstrong uwtable
define internal i32 @pletoh32(ptr noundef %0) #3 {
  %2 = alloca ptr, align 8
  store ptr %0, ptr %2, align 8
  %3 = load ptr, ptr %2, align 8
  %4 = getelementptr i8, ptr %3, i64 3
  %5 = load i8, ptr %4, align 1
  %6 = zext i8 %5 to i32
  %7 = shl i32 %6, 24
  %8 = load ptr, ptr %2, align 8
  %9 = getelementptr i8, ptr %8, i64 2
  %10 = load i8, ptr %9, align 1
  %11 = zext i8 %10 to i32
  %12 = shl i32 %11, 16
  %13 = or i32 %7, %12
  %14 = load ptr, ptr %2, align 8
  %15 = getelementptr i8, ptr %14, i64 1
  %16 = load i8, ptr %15, align 1
  %17 = zext i8 %16 to i32
  %18 = shl i32 %17, 8
  %19 = or i32 %13, %18
  %20 = load ptr, ptr %2, align 8
  %21 = getelementptr i8, ptr %20, i64 0
  %22 = load i8, ptr %21, align 1
  %23 = zext i8 %22 to i32
  %24 = shl i32 %23, 0
  %25 = or i32 %19, %24
  ret i32 %25
}

; Function Attrs: null_pointer_is_valid sspstrong uwtable
define hidden i32 @_5views_open(ptr noundef %0, ptr noundef %1, ptr noundef %2) #0 {
  %4 = alloca i32, align 4
  %5 = alloca ptr, align 8
  %6 = alloca ptr, align 8
  %7 = alloca ptr, align 8
  %8 = alloca %struct.t_5VW_Capture_Header, align 4
  %9 = alloca i32, align 4
  %10 = alloca i32, align 4
  store ptr %0, ptr %5, align 8
  store ptr %1, ptr %6, align 8
  store ptr %2, ptr %7, align 8
  call void @llvm.lifetime.start.p0(i64 56, ptr %8) #9
  call void @llvm.lifetime.start.p0(i64 4, ptr %9) #9
  store i32 0, ptr %9, align 4
  %11 = load ptr, ptr %5, align 8
  %12 = getelementptr inbounds nuw %struct.wtap, ptr %11, i32 0, i32 0
  %13 = load ptr, ptr %12, align 8
  %14 = getelementptr inbounds nuw %struct.t_5VW_Capture_Header, ptr %8, i32 0, i32 0
  %15 = load ptr, ptr %6, align 8
  %16 = load ptr, ptr %7, align 8
  %17 = call zeroext i1 @wtap_read_bytes(ptr noundef %13, ptr noundef %14, i32 noundef 32, ptr noundef %15, ptr noundef %16)
  br i1 %17, label %24, label %18

18:                                               ; preds = %3
  %19 = load ptr, ptr %6, align 8
  %20 = load i32, ptr %19, align 4
  %21 = icmp ne i32 %20, -12
  br i1 %21, label %22, label %23

22:                                               ; preds = %18
  store i32 -1, ptr %4, align 4
  store i32 1, ptr %10, align 4
  br label %101

23:                                               ; preds = %18
  store i32 0, ptr %4, align 4
  store i32 1, ptr %10, align 4
  br label %101

24:                                               ; preds = %3
  %25 = getelementptr inbounds nuw %struct.t_5VW_Capture_Header, ptr %8, i32 0, i32 0
  %26 = getelementptr inbounds nuw %struct.t_5VW_Info_Header, ptr %25, i32 0, i32 0
  %27 = load i32, ptr %26, align 4
  %28 = icmp ne i32 %27, -1431655766
  br i1 %28, label %29, label %30

29:                                               ; preds = %24
  store i32 0, ptr %4, align 4
  store i32 1, ptr %10, align 4
  br label %101

30:                                               ; preds = %24
  %31 = getelementptr inbounds nuw %struct.t_5VW_Capture_Header, ptr %8, i32 0, i32 0
  %32 = getelementptr inbounds nuw %struct.t_5VW_Info_Header, ptr %31, i32 0, i32 2
  %33 = call i32 @pletoh32(ptr noundef %32)
  %34 = getelementptr inbounds nuw %struct.t_5VW_Capture_Header, ptr %8, i32 0, i32 0
  %35 = getelementptr inbounds nuw %struct.t_5VW_Info_Header, ptr %34, i32 0, i32 2
  store i32 %33, ptr %35, align 4
  %36 = getelementptr inbounds nuw %struct.t_5VW_Capture_Header, ptr %8, i32 0, i32 0
  %37 = getelementptr inbounds nuw %struct.t_5VW_Info_Header, ptr %36, i32 0, i32 2
  %38 = load i32, ptr %37, align 4
  switch i32 %38, label %39 [
    i32 65536, label %46
  ]

39:                                               ; preds = %30
  %40 = load ptr, ptr %6, align 8
  store i32 -4, ptr %40, align 4
  %41 = getelementptr inbounds nuw %struct.t_5VW_Capture_Header, ptr %8, i32 0, i32 0
  %42 = getelementptr inbounds nuw %struct.t_5VW_Info_Header, ptr %41, i32 0, i32 2
  %43 = load i32, ptr %42, align 4
  %44 = call noalias ptr (ptr, ptr, ...) @wmem_strdup_printf(ptr noundef null, ptr noundef @.str, i32 noundef %43)
  %45 = load ptr, ptr %7, align 8
  store ptr %44, ptr %45, align 8
  store i32 -1, ptr %4, align 4
  store i32 1, ptr %10, align 4
  br label %101

46:                                               ; preds = %30
  %47 = getelementptr inbounds nuw %struct.t_5VW_Capture_Header, ptr %8, i32 0, i32 0
  %48 = getelementptr inbounds nuw %struct.t_5VW_Info_Header, ptr %47, i32 0, i32 4
  %49 = call i32 @pletoh32(ptr noundef %48)
  %50 = getelementptr inbounds nuw %struct.t_5VW_Capture_Header, ptr %8, i32 0, i32 0
  %51 = getelementptr inbounds nuw %struct.t_5VW_Info_Header, ptr %50, i32 0, i32 4
  store i32 %49, ptr %51, align 4
  %52 = getelementptr inbounds nuw %struct.t_5VW_Capture_Header, ptr %8, i32 0, i32 0
  %53 = getelementptr inbounds nuw %struct.t_5VW_Info_Header, ptr %52, i32 0, i32 4
  %54 = load i32, ptr %53, align 4
  %55 = and i32 %54, -16777216
  %56 = icmp ne i32 %55, 402653184
  br i1 %56, label %57, label %64

57:                                               ; preds = %46
  %58 = load ptr, ptr %6, align 8
  store i32 -4, ptr %58, align 4
  %59 = getelementptr inbounds nuw %struct.t_5VW_Capture_Header, ptr %8, i32 0, i32 0
  %60 = getelementptr inbounds nuw %struct.t_5VW_Info_Header, ptr %59, i32 0, i32 2
  %61 = load i32, ptr %60, align 4
  %62 = call noalias ptr (ptr, ptr, ...) @wmem_strdup_printf(ptr noundef null, ptr noundef @.str.1, i32 noundef %61)
  %63 = load ptr, ptr %7, align 8
  store ptr %62, ptr %63, align 8
  store i32 -1, ptr %4, align 4
  store i32 1, ptr %10, align 4
  br label %101

64:                                               ; preds = %46
  %65 = getelementptr inbounds nuw %struct.t_5VW_Capture_Header, ptr %8, i32 0, i32 0
  %66 = getelementptr inbounds nuw %struct.t_5VW_Info_Header, ptr %65, i32 0, i32 4
  %67 = load i32, ptr %66, align 4
  switch i32 %67, label %69 [
    i32 402657280, label %68
  ]

68:                                               ; preds = %64
  store i32 1, ptr %9, align 4
  br label %76

69:                                               ; preds = %64
  %70 = load ptr, ptr %6, align 8
  store i32 -4, ptr %70, align 4
  %71 = getelementptr inbounds nuw %struct.t_5VW_Capture_Header, ptr %8, i32 0, i32 0
  %72 = getelementptr inbounds nuw %struct.t_5VW_Info_Header, ptr %71, i32 0, i32 4
  %73 = load i32, ptr %72, align 4
  %74 = call noalias ptr (ptr, ptr, ...) @wmem_strdup_printf(ptr noundef null, ptr noundef @.str.2, i32 noundef %73)
  %75 = load ptr, ptr %7, align 8
  store ptr %74, ptr %75, align 8
  store i32 -1, ptr %4, align 4
  store i32 1, ptr %10, align 4
  br label %101

76:                                               ; preds = %68
  %77 = load ptr, ptr %5, align 8
  %78 = getelementptr inbounds nuw %struct.wtap, ptr %77, i32 0, i32 0
  %79 = load ptr, ptr %78, align 8
  %80 = getelementptr inbounds nuw %struct.t_5VW_Capture_Header, ptr %8, i32 0, i32 1
  %81 = load ptr, ptr %6, align 8
  %82 = load ptr, ptr %7, align 8
  %83 = call zeroext i1 @wtap_read_bytes(ptr noundef %79, ptr noundef %80, i32 noundef 24, ptr noundef %81, ptr noundef %82)
  br i1 %83, label %85, label %84

84:                                               ; preds = %76
  store i32 -1, ptr %4, align 4
  store i32 1, ptr %10, align 4
  br label %101

85:                                               ; preds = %76
  %86 = load i32, ptr @_5views_file_type_subtype, align 4
  %87 = load ptr, ptr %5, align 8
  %88 = getelementptr inbounds nuw %struct.wtap, ptr %87, i32 0, i32 3
  store i32 %86, ptr %88, align 4
  %89 = load ptr, ptr %5, align 8
  %90 = getelementptr inbounds nuw %struct.wtap, ptr %89, i32 0, i32 15
  store ptr @_5views_read, ptr %90, align 8
  %91 = load ptr, ptr %5, align 8
  %92 = getelementptr inbounds nuw %struct.wtap, ptr %91, i32 0, i32 16
  store ptr @_5views_seek_read, ptr %92, align 8
  %93 = load i32, ptr %9, align 4
  %94 = load ptr, ptr %5, align 8
  %95 = getelementptr inbounds nuw %struct.wtap, ptr %94, i32 0, i32 19
  store i32 %93, ptr %95, align 8
  %96 = load ptr, ptr %5, align 8
  %97 = getelementptr inbounds nuw %struct.wtap, ptr %96, i32 0, i32 4
  store i32 0, ptr %97, align 8
  %98 = load ptr, ptr %5, align 8
  %99 = getelementptr inbounds nuw %struct.wtap, ptr %98, i32 0, i32 20
  store i32 9, ptr %99, align 4
  %100 = load ptr, ptr %5, align 8
  call void @wtap_add_generated_idb(ptr noundef %100)
  store i32 1, ptr %4, align 4
  store i32 1, ptr %10, align 4
  br label %101

101:                                              ; preds = %85, %84, %69, %57, %39, %29, %23, %22
  call void @llvm.lifetime.end.p0(i64 4, ptr %9) #9
  call void @llvm.lifetime.end.p0(i64 56, ptr %8) #9
  %102 = load i32, ptr %4, align 4
  ret i32 %102
}