; Function Attrs: null_pointer_is_valid sspstrong uwtable
define hidden range(i32 -1, 2) i32 @_5views_open(ptr noundef %0, ptr noundef %1, ptr noundef %2) local_unnamed_addr #0 {
  %4 = alloca %struct.t_5VW_Capture_Header, align 4
  call void @llvm.lifetime.start.p0(i64 56, ptr nonnull %4) #6
  %5 = load ptr, ptr %0, align 8
  %6 = call zeroext i1 @wtap_read_bytes(ptr noundef %5, ptr noundef nonnull %4, i32 noundef 32, ptr noundef %1, ptr noundef %2)
  br i1 %6, label %9, label %7

7:                                                ; preds = %3
  %8 = load i32, ptr %1, align 4
  %.not = icmp ne i32 %8, -12
  %. = sext i1 %.not to i32
  br label %37

9:                                                ; preds = %3
  %10 = load i32, ptr %4, align 4
  %.not22 = icmp eq i32 %10, -1431655766
  br i1 %.not22, label %11, label %37

11:                                               ; preds = %9
  %12 = getelementptr inbounds nuw i8, ptr %4, i64 8
  %13 = load i32, ptr %12, align 4
  %cond = icmp eq i32 %13, 65536
  br i1 %cond, label %16, label %14

14:                                               ; preds = %11
  store i32 -4, ptr %1, align 4
  %15 = call noalias ptr (ptr, ptr, ...) @wmem_strdup_printf(ptr noundef null, ptr noundef nonnull @.str, i32 noundef %13)
  store ptr %15, ptr %2, align 8
  br label %37

16:                                               ; preds = %11
  %17 = getelementptr inbounds nuw i8, ptr %4, i64 16
  %18 = load i32, ptr %17, align 4
  %19 = and i32 %18, -16777216
  %.not23 = icmp eq i32 %19, 402653184
  br i1 %.not23, label %22, label %20

20:                                               ; preds = %16
  store i32 -4, ptr %1, align 4
  %21 = call noalias ptr (ptr, ptr, ...) @wmem_strdup_printf(ptr noundef null, ptr noundef nonnull @.str.1, i32 noundef 65536)
  store ptr %21, ptr %2, align 8
  br label %37

22:                                               ; preds = %16
  %cond1 = icmp eq i32 %18, 402657280
  br i1 %cond1, label %23, label %27

23:                                               ; preds = %22
  %24 = load ptr, ptr %0, align 8
  %25 = getelementptr inbounds nuw i8, ptr %4, i64 32
  %26 = call zeroext i1 @wtap_read_bytes(ptr noundef %24, ptr noundef nonnull %25, i32 noundef 24, ptr noundef %1, ptr noundef %2)
  br i1 %26, label %29, label %37

27:                                               ; preds = %22
  store i32 -4, ptr %1, align 4
  %28 = call noalias ptr (ptr, ptr, ...) @wmem_strdup_printf(ptr noundef null, ptr noundef nonnull @.str.2, i32 noundef %18)
  store ptr %28, ptr %2, align 8
  br label %37

29:                                               ; preds = %23
  %30 = load i32, ptr @_5views_file_type_subtype, align 4
  %31 = getelementptr inbounds nuw i8, ptr %0, i64 20
  store i32 %30, ptr %31, align 4
  %32 = getelementptr inbounds nuw i8, ptr %0, i64 112
  store ptr @_5views_read, ptr %32, align 8
  %33 = getelementptr inbounds nuw i8, ptr %0, i64 120
  store ptr @_5views_seek_read, ptr %33, align 8
  %34 = getelementptr inbounds nuw i8, ptr %0, i64 144
  store i32 1, ptr %34, align 8
  %35 = getelementptr inbounds nuw i8, ptr %0, i64 24
  store i32 0, ptr %35, align 8
  %36 = getelementptr inbounds nuw i8, ptr %0, i64 148
  store i32 9, ptr %36, align 4
  call void @wtap_add_generated_idb(ptr noundef %0)
  br label %37

37:                                               ; preds = %23, %9, %7, %29, %27, %20, %14
  %.0 = phi i32 [ -1, %20 ], [ 1, %29 ], [ -1, %27 ], [ -1, %14 ], [ %., %7 ], [ 0, %9 ], [ -1, %23 ]
  call void @llvm.lifetime.end.p0(i64 56, ptr nonnull %4) #6
  ret i32 %.0
}